(iMap
Map
p0
(dp1
S'yBorder'
p2
I10
sS'_map'
p3
(lp4
(lp5
NaNa(iField
Field
p6
(dp7
S'building'
p8
NsS'obj'
p9
NsS'transferable'
p10
I01
sS'movable'
p11
I01
sS'background'
p12
(dp13
S'type'
p14
S'orange'
p15
ssS'border'
p16
I00
sS'unit'
p17
Nsba(iField
Field
p18
(dp19
g8
Nsg9
Nsg10
I01
sg11
I01
sg12
(dp20
g14
S'green'
p21
ssg16
I00
sg17
Nsba(iField
Field
p22
(dp23
g8
Nsg9
Nsg10
I01
sg11
I01
sg12
(dp24
g14
S'orange'
p25
ssg16
I00
sg17
Nsba(iField
Field
p26
(dp27
g8
Nsg9
Nsg10
I01
sg11
I01
sg12
(dp28
g14
S'green'
p29
ssg16
I00
sg17
Nsba(iField
Field
p30
(dp31
g8
Nsg9
Nsg10
I01
sg11
I01
sg12
(dp32
g14
S'green'
p33
ssg16
I00
sg17
NsbaNaNaNaNaa(lp34
(iField
Field
p35
(dp36
g8
Nsg9
Nsg10
I01
sg11
I01
sg12
(dp37
g14
S'green'
p38
ssg16
I00
sg17
Nsba(iField
Field
p39
(dp40
g8
Nsg9
Nsg10
I01
sg11
I01
sg12
(dp41
g14
S'green'
p42
ssg16
I00
sg17
Nsba(iField
Field
p43
(dp44
g8
Nsg9
Nsg10
I01
sg11
I01
sg12
(dp45
g14
S'green'
p46
ssg16
I00
sg17
Nsba(iField
Field
p47
(dp48
g8
Nsg9
Nsg10
I01
sg11
I01
sg12
(dp49
g14
S'green'
p50
ssg16
I00
sg17
Nsba(iField
Field
p51
(dp52
g8
Nsg9
Nsg10
I01
sg11
I01
sg12
(dp53
g14
S'green'
p54
ssg16
I00
sg17
Nsba(iField
Field
p55
(dp56
g8
Nsg9
Nsg10
I01
sg11
I01
sg12
(dp57
g14
S'green'
p58
ssg16
I00
sg17
Nsba(iField
Field
p59
(dp60
g8
Nsg9
Nsg10
I01
sg11
I01
sg12
(dp61
g14
S'red'
p62
ssg16
I00
sg17
NsbaNaNaNaNaa(lp63
(iField
Field
p64
(dp65
g8
(dp66
S'player'
p67
S'1'
p68
sg14
S'base'
p69
ssg9
Nsg10
I01
sg11
I00
sg12
(dp70
g14
S'green'
p71
ssg16
I00
sg17
Nsba(iField
Field
p72
(dp73
g8
Nsg9
Nsg10
I01
sg11
I01
sg12
(dp74
g14
S'green'
p75
ssg16
I00
sg17
Nsba(iField
Field
p76
(dp77
g8
Nsg9
Nsg10
I01
sg11
I01
sg12
(dp78
g14
S'green'
p79
ssg16
I00
sg17
Nsba(iField
Field
p80
(dp81
g8
Nsg9
Nsg10
I01
sg11
I01
sg12
(dp82
g14
S'green'
p83
ssg16
I00
sg17
Nsba(iField
Field
p84
(dp85
g8
Nsg9
Nsg10
I01
sg11
I01
sg12
(dp86
g14
S'green'
p87
ssg16
I00
sg17
Nsba(iField
Field
p88
(dp89
g8
Nsg9
Nsg10
I01
sg11
I01
sg12
(dp90
g14
S'green'
p91
ssg16
I00
sg17
Nsba(iField
Field
p92
(dp93
g8
Nsg9
Nsg10
I01
sg11
I01
sg12
(dp94
g14
S'green'
p95
ssg16
I00
sg17
Nsba(iField
Field
p96
(dp97
g8
Nsg9
Nsg10
I01
sg11
I01
sg12
(dp98
g14
S'red'
p99
ssg16
I00
sg17
Nsba(iField
Field
p100
(dp101
g8
Nsg9
Nsg10
I01
sg11
I01
sg12
(dp102
g14
S'red'
p103
ssg16
I00
sg17
NsbaNaNaa(lp104
(iField
Field
p105
(dp106
g8
Nsg9
Nsg10
I01
sg11
I01
sg12
(dp107
g14
S'green'
p108
ssg16
I00
sg17
Nsba(iField
Field
p109
(dp110
g8
Nsg9
Nsg10
I01
sg11
I01
sg12
(dp111
g14
S'green'
p112
ssg16
I00
sg17
Nsba(iField
Field
p113
(dp114
g8
Nsg9
Nsg10
I01
sg11
I01
sg12
(dp115
g14
S'green'
p116
ssg16
I00
sg17
Nsba(iField
Field
p117
(dp118
g8
Nsg9
Nsg10
I01
sg11
I01
sg12
(dp119
g14
S'green'
p120
ssg16
I00
sg17
Nsba(iField
Field
p121
(dp122
g8
Nsg9
Nsg10
I01
sg11
I01
sg12
(dp123
g14
S'green'
p124
ssg16
I00
sg17
Nsba(iField
Field
p125
(dp126
g8
Nsg9
Nsg10
I01
sg11
I01
sg12
(dp127
g14
S'green'
p128
ssg16
I00
sg17
Nsba(iField
Field
p129
(dp130
g8
Nsg9
Nsg10
I01
sg11
I01
sg12
(dp131
g14
S'green'
p132
ssg16
I00
sg17
Nsba(iField
Field
p133
(dp134
g8
Nsg9
Nsg10
I01
sg11
I01
sg12
(dp135
g14
S'green'
p136
ssg16
I00
sg17
Nsba(iField
Field
p137
(dp138
g8
Nsg9
(dp139
g14
S'stone'
p140
ssg10
I01
sg11
I00
sg12
(dp141
g14
S'green'
p142
ssg16
I00
sg17
NsbaNaNaa(lp143
(iField
Field
p144
(dp145
g8
Nsg9
Nsg10
I01
sg11
I01
sg12
(dp146
g14
S'green'
p147
ssg16
I00
sg17
Nsba(iField
Field
p148
(dp149
g8
Nsg9
Nsg10
I01
sg11
I01
sg12
(dp150
g14
S'green'
p151
ssg16
I00
sg17
Nsba(iField
Field
p152
(dp153
g8
Nsg9
Nsg10
I01
sg11
I01
sg12
(dp154
g14
S'green'
p155
ssg16
I00
sg17
NsbaNa(iField
Field
p156
(dp157
g8
Nsg9
(dp158
g14
S'stone'
p159
ssg10
I01
sg11
I00
sg12
(dp160
g14
S'green'
p161
ssg16
I00
sg17
Nsba(iField
Field
p162
(dp163
g8
Nsg9
Nsg10
I01
sg11
I01
sg12
(dp164
g14
S'orange'
p165
ssg16
I00
sg17
Nsba(iField
Field
p166
(dp167
g8
Nsg9
Nsg10
I01
sg11
I01
sg12
(dp168
g14
S'green'
p169
ssg16
I00
sg17
Nsba(iField
Field
p170
(dp171
g8
Nsg9
Nsg10
I01
sg11
I01
sg12
(dp172
g14
S'red'
p173
ssg16
I00
sg17
Nsba(iField
Field
p174
(dp175
g8
Nsg9
Nsg10
I01
sg11
I01
sg12
(dp176
g14
S'green'
p177
ssg16
I00
sg17
Nsba(iField
Field
p178
(dp179
g8
Nsg9
(dp180
g14
S'stone'
p181
ssg10
I01
sg11
I00
sg12
(dp182
g14
S'green'
p183
ssg16
I00
sg17
NsbaNaa(lp184
NaNaNa(iField
Field
p185
(dp186
g8
Nsg9
(dp187
g14
S'stone'
p188
ssg10
I01
sg11
I00
sg12
(dp189
g14
S'green'
p190
ssg16
I00
sg17
Nsba(iField
Field
p191
(dp192
g8
Nsg9
(dp193
g14
S'diamond'
p194
ssg10
I01
sg11
I00
sg12
(dp195
g14
S'blue'
p196
ssg16
I00
sg17
Nsba(iField
Field
p197
(dp198
g8
Nsg9
Nsg10
I01
sg11
I01
sg12
(dp199
g14
S'orange'
p200
ssg16
I00
sg17
Nsba(iField
Field
p201
(dp202
g8
Nsg9
(dp203
g14
S'diamond'
p204
ssg10
I01
sg11
I00
sg12
(dp205
g14
S'blue'
p206
ssg16
I00
sg17
Nsba(iField
Field
p207
(dp208
g8
Nsg9
Nsg10
I01
sg11
I01
sg12
(dp209
g14
S'green'
p210
ssg16
I00
sg17
Nsba(iField
Field
p211
(dp212
g8
Nsg9
Nsg10
I01
sg11
I01
sg12
(dp213
g14
S'green'
p214
ssg16
I00
sg17
Nsba(iField
Field
p215
(dp216
g8
Nsg9
(dp217
g14
S'stone'
p218
ssg10
I01
sg11
I00
sg12
(dp219
g14
S'green'
p220
ssg16
I00
sg17
NsbaNaa(lp221
NaNaNa(iField
Field
p222
(dp223
g8
Nsg9
Nsg10
I01
sg11
I01
sg12
(dp224
g14
S'green'
p225
ssg16
I00
sg17
Nsba(iField
Field
p226
(dp227
g8
Nsg9
Nsg10
I01
sg11
I01
sg12
(dp228
g14
S'orange'
p229
ssg16
I00
sg17
Nsba(iField
Field
p230
(dp231
g8
Nsg9
Nsg10
I01
sg11
I01
sg12
(dp232
g14
S'orange'
p233
ssg16
I00
sg17
Nsba(iField
Field
p234
(dp235
g8
Nsg9
Nsg10
I01
sg11
I01
sg12
(dp236
g14
S'green'
p237
ssg16
I00
sg17
Nsba(iField
Field
p238
(dp239
g8
Nsg9
Nsg10
I01
sg11
I01
sg12
(dp240
g14
S'green'
p241
ssg16
I00
sg17
Nsba(iField
Field
p242
(dp243
g8
Nsg9
Nsg10
I01
sg11
I01
sg12
(dp244
g14
S'green'
p245
ssg16
I00
sg17
Nsba(iField
Field
p246
(dp247
g8
Nsg9
Nsg10
I01
sg11
I01
sg12
(dp248
g14
S'green'
p249
ssg16
I00
sg17
NsbaNaa(lp250
NaNaNa(iField
Field
p251
(dp252
g8
Nsg9
Nsg10
I01
sg11
I01
sg12
(dp253
g14
S'green'
p254
ssg16
I00
sg17
Nsba(iField
Field
p255
(dp256
g8
Nsg9
Nsg10
I01
sg11
I01
sg12
(dp257
g14
S'orange'
p258
ssg16
I00
sg17
Nsba(iField
Field
p259
(dp260
g8
Nsg9
Nsg10
I01
sg11
I01
sg12
(dp261
g14
S'green'
p262
ssg16
I00
sg17
Nsba(iField
Field
p263
(dp264
g8
Nsg9
Nsg10
I01
sg11
I01
sg12
(dp265
g14
S'green'
p266
ssg16
I00
sg17
Nsba(iField
Field
p267
(dp268
g8
Nsg9
Nsg10
I01
sg11
I01
sg12
(dp269
g14
S'red'
p270
ssg16
I00
sg17
Nsba(iField
Field
p271
(dp272
g8
Nsg9
Nsg10
I01
sg11
I01
sg12
(dp273
g14
S'red'
p274
ssg16
I00
sg17
Nsba(iField
Field
p275
(dp276
g8
Nsg9
Nsg10
I01
sg11
I00
sg12
(dp277
g14
S'black'
p278
ssg16
I00
sg17
NsbaNaa(lp279
NaNaNaNa(iField
Field
p280
(dp281
g8
Nsg9
Nsg10
I01
sg11
I01
sg12
(dp282
g14
S'green'
p283
ssg16
I00
sg17
Nsba(iField
Field
p284
(dp285
g8
Nsg9
Nsg10
I01
sg11
I01
sg12
(dp286
g14
S'green'
p287
ssg16
I00
sg17
Nsba(iField
Field
p288
(dp289
g8
Nsg9
Nsg10
I01
sg11
I01
sg12
(dp290
g14
S'green'
p291
ssg16
I00
sg17
Nsba(iField
Field
p292
(dp293
g8
Nsg9
Nsg10
I01
sg11
I01
sg12
(dp294
g14
S'green'
p295
ssg16
I00
sg17
Nsba(iField
Field
p296
(dp297
g8
Nsg9
Nsg10
I01
sg11
I01
sg12
(dp298
g14
S'red'
p299
ssg16
I00
sg17
Nsba(iField
Field
p300
(dp301
g8
Nsg9
Nsg10
I01
sg11
I01
sg12
(dp302
g14
S'red'
p303
ssg16
I00
sg17
Nsba(iField
Field
p304
(dp305
g8
Nsg9
Nsg10
I01
sg11
I00
sg12
Nsg16
I01
sg17
Nsbaa(lp306
NaNaNaNa(iField
Field
p307
(dp308
g8
Nsg9
Nsg10
I01
sg11
I01
sg12
(dp309
g14
S'green'
p310
ssg16
I00
sg17
Nsba(iField
Field
p311
(dp312
g8
Nsg9
Nsg10
I01
sg11
I01
sg12
(dp313
g14
S'green'
p314
ssg16
I00
sg17
Nsba(iField
Field
p315
(dp316
g8
Nsg9
Nsg10
I01
sg11
I00
sg12
(dp317
g14
S'black'
p318
ssg16
I00
sg17
Nsba(iField
Field
p319
(dp320
g8
Nsg9
Nsg10
I01
sg11
I01
sg12
(dp321
g14
S'green'
p322
ssg16
I00
sg17
Nsba(iField
Field
p323
(dp324
g8
Nsg9
Nsg10
I01
sg11
I01
sg12
(dp325
g14
S'red'
p326
ssg16
I00
sg17
Nsba(iField
Field
p327
(dp328
g8
Nsg9
(dp329
g14
S'diamond'
p330
ssg10
I01
sg11
I00
sg12
(dp331
g14
S'blue'
p332
ssg16
I00
sg17
NsbaNaa(lp333
NaNaNaNaNa(iField
Field
p334
(dp335
g8
Nsg9
Nsg10
I01
sg11
I00
sg12
Nsg16
I01
sg17
Nsba(iField
Field
p336
(dp337
g8
Nsg9
Nsg10
I01
sg11
I00
sg12
Nsg16
I01
sg17
Nsba(iField
Field
p338
(dp339
g8
Nsg9
Nsg10
I01
sg11
I00
sg12
Nsg16
I01
sg17
Nsba(iField
Field
p340
(dp341
g8
Nsg9
Nsg10
I01
sg11
I00
sg12
Nsg16
I01
sg17
Nsba(iField
Field
p342
(dp343
g8
Nsg9
Nsg10
I01
sg11
I00
sg12
Nsg16
I01
sg17
NsbaNaasS'mapTuned'
p344
I00
sS'xBorder'
p345
I10
sS'EvenYShiftedLeft'
p346
I01
sb.