(iMap
Map
p0
(dp1
S'xBorder'
p2
I9
sS'_map'
p3
(lp4
(lp5
(iField
Field
p6
(dp7
S'building'
p8
NsS'obj'
p9
NsS'transferable'
p10
I01
sS'movable'
p11
I00
sS'background'
p12
(dp13
S'type'
p14
S'black'
p15
ssS'border'
p16
I00
sS'unit'
p17
Nsba(iField
Field
p18
(dp19
g8
Nsg9
Nsg10
I00
sg11
I01
sg12
(dp20
g14
S'orange'
p21
ssg16
I00
sg17
Nsba(iField
Field
p22
(dp23
g8
Nsg9
Nsg10
I00
sg11
I01
sg12
(dp24
g14
S'orange'
p25
ssg16
I00
sg17
Nsba(iField
Field
p26
(dp27
g8
Nsg9
Nsg10
I01
sg11
I01
sg12
(dp28
g14
S'green'
p29
ssg16
I00
sg17
Nsba(iField
Field
p30
(dp31
g8
Nsg9
Nsg10
I00
sg11
I01
sg12
(dp32
g14
S'orange'
p33
ssg16
I00
sg17
Nsba(iField
Field
p34
(dp35
g8
Nsg9
Nsg10
I01
sg11
I01
sg12
(dp36
g14
S'green'
p37
ssg16
I00
sg17
Nsba(iField
Field
p38
(dp39
g8
Nsg9
Nsg10
I01
sg11
I01
sg12
(dp40
g14
S'green'
p41
ssg16
I00
sg17
Nsba(iField
Field
p42
(dp43
g8
Nsg9
Nsg10
I01
sg11
I01
sg12
(dp44
g14
S'red'
p45
ssg16
I00
sg17
Nsba(iField
Field
p46
(dp47
g8
Nsg9
(dp48
g14
S'diamond'
p49
ssg10
I01
sg11
I00
sg12
(dp50
g14
S'blue'
p51
ssg16
I00
sg17
Nsba(iField
Field
p52
(dp53
g8
Nsg9
Nsg10
I01
sg11
I00
sg12
(dp54
g14
S'black'
p55
ssg16
I00
sg17
Nsbaa(lp56
(iField
Field
p57
(dp58
g8
Nsg9
Nsg10
I01
sg11
I01
sg12
(dp59
g14
S'green'
p60
ssg16
I00
sg17
Nsba(iField
Field
p61
(dp62
g8
Nsg9
Nsg10
I01
sg11
I01
sg12
(dp63
g14
S'green'
p64
ssg16
I00
sg17
Nsba(iField
Field
p65
(dp66
g8
Nsg9
Nsg10
I01
sg11
I01
sg12
(dp67
g14
S'green'
p68
ssg16
I00
sg17
Nsba(iField
Field
p69
(dp70
g8
Nsg9
Nsg10
I01
sg11
I01
sg12
(dp71
g14
S'green'
p72
ssg16
I00
sg17
Nsba(iField
Field
p73
(dp74
g8
Nsg9
Nsg10
I01
sg11
I01
sg12
(dp75
g14
S'green'
p76
ssg16
I00
sg17
Nsba(iField
Field
p77
(dp78
g8
Nsg9
Nsg10
I01
sg11
I01
sg12
(dp79
g14
S'green'
p80
ssg16
I00
sg17
Nsba(iField
Field
p81
(dp82
g8
Nsg9
Nsg10
I01
sg11
I01
sg12
(dp83
g14
S'red'
p84
ssg16
I00
sg17
Nsba(iField
Field
p85
(dp86
g8
Nsg9
Nsg10
I01
sg11
I01
sg12
(dp87
g14
S'red'
p88
ssg16
I00
sg17
Nsba(iField
Field
p89
(dp90
g8
Nsg9
Nsg10
I01
sg11
I01
sg12
(dp91
g14
S'red'
p92
ssg16
I00
sg17
Nsba(iField
Field
p93
(dp94
g8
Nsg9
Nsg10
I01
sg11
I00
sg12
(dp95
g14
S'black'
p96
ssg16
I00
sg17
Nsbaa(lp97
(iField
Field
p98
(dp99
g8
(dp100
S'player'
p101
S'1'
p102
sg14
S'base'
p103
ssg9
Nsg10
I00
sg11
I00
sg12
(dp104
g14
S'green'
p105
ssg16
I00
sg17
Nsba(iField
Field
p106
(dp107
g8
Nsg9
Nsg10
I01
sg11
I01
sg12
(dp108
g14
S'green'
p109
ssg16
I00
sg17
Nsba(iField
Field
p110
(dp111
g8
Nsg9
Nsg10
I01
sg11
I01
sg12
(dp112
g14
S'green'
p113
ssg16
I00
sg17
Nsba(iField
Field
p114
(dp115
g8
Nsg9
Nsg10
I01
sg11
I01
sg12
(dp116
g14
S'green'
p117
ssg16
I00
sg17
Nsba(iField
Field
p118
(dp119
g8
Nsg9
Nsg10
I01
sg11
I01
sg12
(dp120
g14
S'green'
p121
ssg16
I00
sg17
Nsba(iField
Field
p122
(dp123
g8
Nsg9
Nsg10
I01
sg11
I01
sg12
(dp124
g14
S'green'
p125
ssg16
I00
sg17
Nsba(iField
Field
p126
(dp127
g8
Nsg9
Nsg10
I01
sg11
I01
sg12
(dp128
g14
S'green'
p129
ssg16
I00
sg17
Nsba(iField
Field
p130
(dp131
g8
Nsg9
Nsg10
I01
sg11
I01
sg12
(dp132
g14
S'red'
p133
ssg16
I00
sg17
Nsba(iField
Field
p134
(dp135
g8
Nsg9
Nsg10
I01
sg11
I01
sg12
(dp136
g14
S'red'
p137
ssg16
I00
sg17
Nsba(iField
Field
p138
(dp139
g8
Nsg9
(dp140
g14
S'stone'
p141
ssg10
I01
sg11
I00
sg12
(dp142
g14
S'green'
p143
ssg16
I00
sg17
Nsbaa(lp144
(iField
Field
p145
(dp146
g8
Nsg9
Nsg10
I01
sg11
I01
sg12
(dp147
g14
S'green'
p148
ssg16
I00
sg17
Nsba(iField
Field
p149
(dp150
g8
Nsg9
Nsg10
I01
sg11
I01
sg12
(dp151
g14
S'green'
p152
ssg16
I00
sg17
Nsba(iField
Field
p153
(dp154
g8
Nsg9
Nsg10
I01
sg11
I01
sg12
(dp155
g14
S'green'
p156
ssg16
I00
sg17
Nsba(iField
Field
p157
(dp158
g8
Nsg9
Nsg10
I01
sg11
I01
sg12
(dp159
g14
S'green'
p160
ssg16
I00
sg17
Nsba(iField
Field
p161
(dp162
g8
Nsg9
Nsg10
I01
sg11
I01
sg12
(dp163
g14
S'green'
p164
ssg16
I00
sg17
Nsba(iField
Field
p165
(dp166
g8
Nsg9
Nsg10
I01
sg11
I01
sg12
(dp167
g14
S'green'
p168
ssg16
I00
sg17
Nsba(iField
Field
p169
(dp170
g8
Nsg9
Nsg10
I01
sg11
I01
sg12
(dp171
g14
S'green'
p172
ssg16
I00
sg17
Nsba(iField
Field
p173
(dp174
g8
Nsg9
Nsg10
I01
sg11
I01
sg12
(dp175
g14
S'green'
p176
ssg16
I00
sg17
Nsba(iField
Field
p177
(dp178
g8
Nsg9
(dp179
g14
S'stone'
p180
ssg10
I01
sg11
I00
sg12
(dp181
g14
S'green'
p182
ssg16
I00
sg17
NsbaNaa(lp183
(iField
Field
p184
(dp185
g8
Nsg9
Nsg10
I01
sg11
I01
sg12
(dp186
g14
S'green'
p187
ssg16
I00
sg17
Nsba(iField
Field
p188
(dp189
g8
Nsg9
Nsg10
I01
sg11
I01
sg12
(dp190
g14
S'green'
p191
ssg16
I00
sg17
Nsba(iField
Field
p192
(dp193
g8
Nsg9
Nsg10
I01
sg11
I01
sg12
(dp194
g14
S'green'
p195
ssg16
I00
sg17
Nsba(iField
Field
p196
(dp197
g8
Nsg9
Nsg10
I01
sg11
I01
sg12
(dp198
g14
S'green'
p199
ssg16
I00
sg17
NsbaNa(iField
Field
p200
(dp201
g8
Nsg9
Nsg10
I00
sg11
I01
sg12
(dp202
g14
S'orange'
p203
ssg16
I00
sg17
Nsba(iField
Field
p204
(dp205
g8
Nsg9
Nsg10
I01
sg11
I01
sg12
(dp206
g14
S'green'
p207
ssg16
I00
sg17
Nsba(iField
Field
p208
(dp209
g8
Nsg9
Nsg10
I01
sg11
I01
sg12
(dp210
g14
S'red'
p211
ssg16
I00
sg17
Nsba(iField
Field
p212
(dp213
g8
Nsg9
Nsg10
I01
sg11
I01
sg12
(dp214
g14
S'green'
p215
ssg16
I00
sg17
NsbaNaa(lp216
(iField
Field
p217
(dp218
g8
Nsg9
Nsg10
I01
sg11
I01
sg12
(dp219
g14
S'green'
p220
ssg16
I00
sg17
Nsba(iField
Field
p221
(dp222
g8
Nsg9
Nsg10
I01
sg11
I01
sg12
(dp223
g14
S'green'
p224
ssg16
I00
sg17
Nsba(iField
Field
p225
(dp226
g8
Nsg9
Nsg10
I01
sg11
I01
sg12
(dp227
g14
S'green'
p228
ssg16
I00
sg17
NsbaNaNa(iField
Field
p229
(dp230
g8
Nsg9
Nsg10
I00
sg11
I01
sg12
(dp231
g14
S'orange'
p232
ssg16
I00
sg17
Nsba(iField
Field
p233
(dp234
g8
Nsg9
(dp235
g14
S'diamond'
p236
ssg10
I01
sg11
I00
sg12
(dp237
g14
S'blue'
p238
ssg16
I00
sg17
NsbaNaNaNaa(lp239
Na(iField
Field
p240
(dp241
g8
Nsg9
Nsg10
I01
sg11
I01
sg12
(dp242
g14
S'green'
p243
ssg16
I00
sg17
Nsba(iField
Field
p244
(dp245
g8
Nsg9
Nsg10
I01
sg11
I01
sg12
(dp246
g14
S'green'
p247
ssg16
I00
sg17
NsbaNaNaNaNaNaNaNaasS'rotations'
p248
(lp249
S'Left'
p250
aS'Right'
p251
asS'directions'
p252
(lp253
S'E'
p254
aS'SE'
p255
aS'SW'
p256
aS'W'
p257
aS'NW'
p258
aS'NE'
p259
asS'yBorder'
p260
I6
sS'mapTuned'
p261
I00
sS'EvenYShiftedLeft'
p262
I01
sb.